; Function Attrs: mustprogress nounwind uwtable
define internal void @_ZN12_GLOBAL__N_123DepCollectorASTListener15visitModuleFileEN4llvm9StringRefEN5clang13serialization10ModuleKindE(ptr nocapture noundef nonnull readonly align 8 dereferenceable(24) %0, ptr %1, i64 %2, i32 %3) unnamed_addr #0 align 2 {
  %5 = getelementptr inbounds nuw i8, ptr %0, i64 8
  %6 = load ptr, ptr %5, align 8
  %7 = load ptr, ptr %6, align 8
  %8 = getelementptr inbounds i8, ptr %7, i64 56
  %9 = load ptr, ptr %8, align 8
  tail call void %9(ptr noundef nonnull align 8 dereferenceable(56) %6, ptr %1, i64 %2, i1 noundef zeroext true, i1 noundef zeroext false, i1 noundef zeroext true, i1 noundef zeroext false) #17
  ret void
}